; Function Attrs: mustprogress uwtable
define internal fastcc noundef double @_ZL14lexParseDoubleP8FileLinePKcm(ptr noundef %0, ptr noundef %1, i64 noundef %2) unnamed_addr #4 personality ptr @__gxx_personality_v0 {
  %4 = alloca %"class.std::__cxx11::basic_string", align 8
  %5 = alloca %"class.std::allocator.25", align 1
  %6 = alloca i8, align 1
  %7 = alloca %"class.std::__cxx11::basic_string", align 8
  %8 = alloca %"class.std::allocator.25", align 1
  call void @_ZNSaIcEC1Ev(ptr noundef nonnull align 1 dereferenceable(1) %5) #33
  invoke void @_ZNSt7__cxx1112basic_stringIcSt11char_traitsIcESaIcEEC1EPKcmRKS3_(ptr noundef nonnull align 8 dereferenceable(32) %4, ptr noundef %1, i64 noundef %2, ptr noundef nonnull align 1 dereferenceable(1) %5)
          to label %9 unwind label %29

9:                                                ; preds = %3
  call void @_ZNSaIcED1Ev(ptr noundef nonnull align 1 dereferenceable(1) %5) #33
  store i8 0, ptr %6, align 1
  %10 = invoke noundef double @_ZN7VString11parseDoubleERKNSt7__cxx1112basic_stringIcSt11char_traitsIcESaIcEEEPb(ptr noundef nonnull align 8 dereferenceable(32) %4, ptr noundef nonnull %6)
          to label %11 unwind label %31

11:                                               ; preds = %9
  %12 = load i8, ptr %6, align 1
  %13 = and i8 %12, 1
  %.not = icmp eq i8 %13, 0
  br i1 %.not, label %14, label %37

14:                                               ; preds = %11
  %15 = invoke noundef nonnull align 8 dereferenceable(112) ptr @_ZN7V3Error11v3errorPrepB5cxx11E11V3ErrorCodeb(i8 5, i1 noundef zeroext true)
          to label %16 unwind label %31

16:                                               ; preds = %14
  %17 = invoke noundef nonnull align 8 dereferenceable(112) ptr @_ZN7V3Error10v3errorStrB5cxx11Ev()
          to label %18 unwind label %31

18:                                               ; preds = %16
  %19 = invoke noundef nonnull align 8 dereferenceable(8) ptr @_ZStlsISt11char_traitsIcEERSt13basic_ostreamIcT_ES5_PKc(ptr noundef nonnull align 8 dereferenceable(8) %17, ptr noundef nonnull @.str.41)
          to label %20 unwind label %31

20:                                               ; preds = %18
  %21 = invoke noundef nonnull align 8 dereferenceable(8) ptr @_ZStlsISt11char_traitsIcEERSt13basic_ostreamIcT_ES5_PKc(ptr noundef nonnull align 8 dereferenceable(8) %19, ptr noundef %1)
          to label %22 unwind label %31

22:                                               ; preds = %20
  %23 = invoke noundef nonnull align 8 dereferenceable(8) ptr @_ZStlsISt11char_traitsIcEERSt13basic_ostreamIcT_ES5_PKc(ptr noundef nonnull align 8 dereferenceable(8) %21, ptr noundef nonnull @.str.5)
          to label %24 unwind label %31

24:                                               ; preds = %22
  call void @_ZNSaIcEC1Ev(ptr noundef nonnull align 1 dereferenceable(1) %8) #33
  %25 = invoke noundef ptr @_ZNSt7__cxx1112basic_stringIcSt11char_traitsIcESaIcEE13_M_local_dataEv(ptr noundef nonnull align 8 dereferenceable(32) %7)
          to label %.noexc unwind label %33

.noexc:                                           ; preds = %24
  invoke void @_ZNSt7__cxx1112basic_stringIcSt11char_traitsIcESaIcEE12_Alloc_hiderC1EPcRKS3_(ptr noundef nonnull align 8 dereferenceable(8) %7, ptr noundef %25, ptr noundef nonnull align 1 dereferenceable(1) %8)
          to label %.noexc12 unwind label %33

.noexc12:                                         ; preds = %.noexc
  invoke void @_ZNSt7__cxx1112basic_stringIcSt11char_traitsIcESaIcEE12_M_constructIPKcEEvT_S8_St20forward_iterator_tag(ptr noundef nonnull align 8 dereferenceable(32) %7, ptr noundef nonnull @.str.1, ptr noundef nonnull @.str.1)
          to label %_ZNSt7__cxx1112basic_stringIcSt11char_traitsIcESaIcEEC2IS3_EEPKcRKS3_.exit unwind label %26

26:                                               ; preds = %.noexc12
  %27 = landingpad { ptr, i32 }
          cleanup
  call void @_ZNSaIcED2Ev(ptr noundef nonnull align 1 dereferenceable(1) %7) #33
  br label %.body

_ZNSt7__cxx1112basic_stringIcSt11char_traitsIcESaIcEEC2IS3_EEPKcRKS3_.exit: ; preds = %.noexc12
  invoke void @_ZN8FileLine10v3errorEndERNSt7__cxx1119basic_ostringstreamIcSt11char_traitsIcESaIcEEERKNS0_12basic_stringIcS3_S4_EE(ptr noundef nonnull align 8 dereferenceable(40) %0, ptr noundef nonnull align 8 dereferenceable(112) %23, ptr noundef nonnull align 8 dereferenceable(32) %7)
          to label %28 unwind label %35

28:                                               ; preds = %_ZNSt7__cxx1112basic_stringIcSt11char_traitsIcESaIcEEC2IS3_EEPKcRKS3_.exit
  call void @_ZNSt7__cxx1112basic_stringIcSt11char_traitsIcESaIcEED1Ev(ptr noundef nonnull align 8 dereferenceable(32) %7) #33
  call void @_ZNSaIcED1Ev(ptr noundef nonnull align 1 dereferenceable(1) %8) #33
  br label %37

29:                                               ; preds = %3
  %30 = landingpad { ptr, i32 }
          cleanup
  call void @_ZNSaIcED1Ev(ptr noundef nonnull align 1 dereferenceable(1) %5) #33
  br label %39

31:                                               ; preds = %22, %20, %18, %16, %14, %9
  %32 = landingpad { ptr, i32 }
          cleanup
  br label %38

33:                                               ; preds = %.noexc, %24
  %34 = landingpad { ptr, i32 }
          cleanup
  br label %.body

35:                                               ; preds = %_ZNSt7__cxx1112basic_stringIcSt11char_traitsIcESaIcEEC2IS3_EEPKcRKS3_.exit
  %36 = landingpad { ptr, i32 }
          cleanup
  call void @_ZNSt7__cxx1112basic_stringIcSt11char_traitsIcESaIcEED1Ev(ptr noundef nonnull align 8 dereferenceable(32) %7) #33
  br label %.body

.body:                                            ; preds = %33, %26, %35
  %.pn = phi { ptr, i32 } [ %36, %35 ], [ %34, %33 ], [ %27, %26 ]
  call void @_ZNSaIcED1Ev(ptr noundef nonnull align 1 dereferenceable(1) %8) #33
  br label %38

37:                                               ; preds = %28, %11
  call void @_ZNSt7__cxx1112basic_stringIcSt11char_traitsIcESaIcEED1Ev(ptr noundef nonnull align 8 dereferenceable(32) %4) #33
  ret double %10

38:                                               ; preds = %.body, %31
  %.pn.pn = phi { ptr, i32 } [ %.pn, %.body ], [ %32, %31 ]
  call void @_ZNSt7__cxx1112basic_stringIcSt11char_traitsIcESaIcEED1Ev(ptr noundef nonnull align 8 dereferenceable(32) %4) #33
  br label %39

39:                                               ; preds = %38, %29
  %.pn.pn.pn = phi { ptr, i32 } [ %.pn.pn, %38 ], [ %30, %29 ]
  resume { ptr, i32 } %.pn.pn.pn
}